target datalayout = "e-m:e-p270:32:32-p271:32:32-p272:64:64-i64:64-i128:128-f80:128-n8:16:32:64-S128"
target triple = "x86_64-pc-linux-gnu"

%"class.std::__cxx11::basic_string" = type { %"struct.std::__cxx11::basic_string<char>::_Alloc_hider", i64, %union.anon }
%"struct.std::__cxx11::basic_string<char>::_Alloc_hider" = type { ptr }
%union.anon = type { i64, [8 x i8] }
%class.cmStateSnapshot = type { ptr, %"class.cmLinkedTree<cmStateDetail::SnapshotDataType>::iterator" }
%"class.cmLinkedTree<cmStateDetail::SnapshotDataType>::iterator" = type { ptr, i64 }
%"struct.cmStateDetail::SnapshotDataType" = type { %"class.cmLinkedTree<cmStateDetail::SnapshotDataType>::iterator", %"class.cmLinkedTree<cmStateDetail::SnapshotDataType>::iterator", %"class.cmLinkedTree<cmStateDetail::PolicyStackEntry>::iterator", %"class.cmLinkedTree<cmStateDetail::PolicyStackEntry>::iterator", %"class.cmLinkedTree<cmStateDetail::PolicyStackEntry>::iterator", i32, i8, %"class.cmLinkedTree<std::__cxx11::basic_string<char>>::iterator", %"class.cmLinkedTree<cmStateDetail::BuildsystemDirectoryStateType>::iterator", %"class.cmLinkedTree<cmDefinitions>::iterator", %"class.cmLinkedTree<cmDefinitions>::iterator", %"class.cmLinkedTree<cmDefinitions>::iterator", i64, i64, i64, i64, i64 }
%"class.cmLinkedTree<cmStateDetail::PolicyStackEntry>::iterator" = type { ptr, i64 }
%"class.cmLinkedTree<std::__cxx11::basic_string<char>>::iterator" = type { ptr, i64 }
%"class.cmLinkedTree<cmStateDetail::BuildsystemDirectoryStateType>::iterator" = type { ptr, i64 }
%"class.cmLinkedTree<cmDefinitions>::iterator" = type { ptr, i64 }
%"class.std::vector.8" = type { %"struct.std::_Vector_base.9" }
%"struct.std::_Vector_base.9" = type { %"struct.std::_Vector_base<std::__cxx11::basic_string<char>, std::allocator<std::__cxx11::basic_string<char>>>::_Vector_impl" }
%"struct.std::_Vector_base<std::__cxx11::basic_string<char>, std::allocator<std::__cxx11::basic_string<char>>>::_Vector_impl" = type { %"struct.std::_Vector_base<std::__cxx11::basic_string<char>, std::allocator<std::__cxx11::basic_string<char>>>::_Vector_impl_data" }
%"struct.std::_Vector_base<std::__cxx11::basic_string<char>, std::allocator<std::__cxx11::basic_string<char>>>::_Vector_impl_data" = type { ptr, ptr, ptr }
%class.cmPropertyMap = type { %"class.std::unordered_map" }
%"class.std::unordered_map" = type { %"class.std::_Hashtable" }
%"class.std::_Hashtable" = type { ptr, i64, %"struct.std::__detail::_Hash_node_base", i64, %"struct.std::__detail::_Prime_rehash_policy", ptr }
%"struct.std::__detail::_Hash_node_base" = type { ptr }
%"struct.std::__detail::_Prime_rehash_policy" = type { float, i64 }
%class.cmState = type <{ %class.cmPropertyDefinitionMap, %"class.std::vector.8", %"class.std::unordered_map.22", %"class.std::unordered_map.22", %"class.std::unordered_set", %class.cmPropertyMap, %"class.std::unique_ptr", %"class.std::unique_ptr.51", %class.cmLinkedTree, %class.cmLinkedTree.69, %class.cmLinkedTree.70, %class.cmLinkedTree.76, %class.cmLinkedTree.82, %"class.std::__cxx11::basic_string", %"class.std::__cxx11::basic_string", i8, i8, i8, i8, i8, i8, i8, i8, i8, i8, [2 x i8], i32, i32, [4 x i8], %"class.std::optional", i8, [7 x i8] }>
%class.cmPropertyDefinitionMap = type { %"class.std::map" }
%"class.std::map" = type { %"class.std::_Rb_tree" }
%"class.std::_Rb_tree" = type { %"struct.std::_Rb_tree<std::pair<std::__cxx11::basic_string<char>, cmProperty::ScopeType>, std::pair<const std::pair<std::__cxx11::basic_string<char>, cmProperty::ScopeType>, cmPropertyDefinition>, std::_Select1st<std::pair<const std::pair<std::__cxx11::basic_string<char>, cmProperty::ScopeType>, cmPropertyDefinition>>, std::less<std::pair<std::__cxx11::basic_string<char>, cmProperty::ScopeType>>>::_Rb_tree_impl" }
%"struct.std::_Rb_tree<std::pair<std::__cxx11::basic_string<char>, cmProperty::ScopeType>, std::pair<const std::pair<std::__cxx11::basic_string<char>, cmProperty::ScopeType>, cmPropertyDefinition>, std::_Select1st<std::pair<const std::pair<std::__cxx11::basic_string<char>, cmProperty::ScopeType>, cmPropertyDefinition>>, std::less<std::pair<std::__cxx11::basic_string<char>, cmProperty::ScopeType>>>::_Rb_tree_impl" = type { %"struct.std::_Rb_tree_key_compare", %"struct.std::_Rb_tree_header" }
%"struct.std::_Rb_tree_key_compare" = type { %"struct.std::less" }
%"struct.std::less" = type { i8 }
%"struct.std::_Rb_tree_header" = type { %"struct.std::_Rb_tree_node_base", i64 }
%"struct.std::_Rb_tree_node_base" = type { i32, ptr, ptr, ptr }
%"class.std::unordered_map.22" = type { %"class.std::_Hashtable.23" }
%"class.std::_Hashtable.23" = type { ptr, i64, %"struct.std::__detail::_Hash_node_base", i64, %"struct.std::__detail::_Prime_rehash_policy", ptr }
%"class.std::unordered_set" = type { %"class.std::_Hashtable.36" }
%"class.std::_Hashtable.36" = type { ptr, i64, %"struct.std::__detail::_Hash_node_base", i64, %"struct.std::__detail::_Prime_rehash_policy", ptr }
%"class.std::unique_ptr" = type { %"struct.std::__uniq_ptr_data" }
%"struct.std::__uniq_ptr_data" = type { %"class.std::__uniq_ptr_impl" }
%"class.std::__uniq_ptr_impl" = type { %"class.std::tuple" }
%"class.std::tuple" = type { %"struct.std::_Tuple_impl" }
%"struct.std::_Tuple_impl" = type { %"struct.std::_Head_base.50" }
%"struct.std::_Head_base.50" = type { ptr }
%"class.std::unique_ptr.51" = type { %"struct.std::__uniq_ptr_data.52" }
%"struct.std::__uniq_ptr_data.52" = type { %"class.std::__uniq_ptr_impl.53" }
%"class.std::__uniq_ptr_impl.53" = type { %"class.std::tuple.54" }
%"class.std::tuple.54" = type { %"struct.std::_Tuple_impl.55" }
%"struct.std::_Tuple_impl.55" = type { %"struct.std::_Head_base.58" }
%"struct.std::_Head_base.58" = type { ptr }
%class.cmLinkedTree = type { %"class.std::vector.59", %"class.std::vector.64" }
%"class.std::vector.59" = type { %"struct.std::_Vector_base.60" }
%"struct.std::_Vector_base.60" = type { %"struct.std::_Vector_base<cmStateDetail::BuildsystemDirectoryStateType, std::allocator<cmStateDetail::BuildsystemDirectoryStateType>>::_Vector_impl" }
%"struct.std::_Vector_base<cmStateDetail::BuildsystemDirectoryStateType, std::allocator<cmStateDetail::BuildsystemDirectoryStateType>>::_Vector_impl" = type { %"struct.std::_Vector_base<cmStateDetail::BuildsystemDirectoryStateType, std::allocator<cmStateDetail::BuildsystemDirectoryStateType>>::_Vector_impl_data" }
%"struct.std::_Vector_base<cmStateDetail::BuildsystemDirectoryStateType, std::allocator<cmStateDetail::BuildsystemDirectoryStateType>>::_Vector_impl_data" = type { ptr, ptr, ptr }
%"class.std::vector.64" = type { %"struct.std::_Vector_base.65" }
%"struct.std::_Vector_base.65" = type { %"struct.std::_Vector_base<unsigned long, std::allocator<unsigned long>>::_Vector_impl" }
%"struct.std::_Vector_base<unsigned long, std::allocator<unsigned long>>::_Vector_impl" = type { %"struct.std::_Vector_base<unsigned long, std::allocator<unsigned long>>::_Vector_impl_data" }
%"struct.std::_Vector_base<unsigned long, std::allocator<unsigned long>>::_Vector_impl_data" = type { ptr, ptr, ptr }
%class.cmLinkedTree.69 = type { %"class.std::vector.8", %"class.std::vector.64" }
%class.cmLinkedTree.70 = type { %"class.std::vector.71", %"class.std::vector.64" }
%"class.std::vector.71" = type { %"struct.std::_Vector_base.72" }
%"struct.std::_Vector_base.72" = type { %"struct.std::_Vector_base<cmStateDetail::PolicyStackEntry, std::allocator<cmStateDetail::PolicyStackEntry>>::_Vector_impl" }
%"struct.std::_Vector_base<cmStateDetail::PolicyStackEntry, std::allocator<cmStateDetail::PolicyStackEntry>>::_Vector_impl" = type { %"struct.std::_Vector_base<cmStateDetail::PolicyStackEntry, std::allocator<cmStateDetail::PolicyStackEntry>>::_Vector_impl_data" }
%"struct.std::_Vector_base<cmStateDetail::PolicyStackEntry, std::allocator<cmStateDetail::PolicyStackEntry>>::_Vector_impl_data" = type { ptr, ptr, ptr }
%class.cmLinkedTree.76 = type { %"class.std::vector.77", %"class.std::vector.64" }
%"class.std::vector.77" = type { %"struct.std::_Vector_base.78" }
%"struct.std::_Vector_base.78" = type { %"struct.std::_Vector_base<cmStateDetail::SnapshotDataType, std::allocator<cmStateDetail::SnapshotDataType>>::_Vector_impl" }
%"struct.std::_Vector_base<cmStateDetail::SnapshotDataType, std::allocator<cmStateDetail::SnapshotDataType>>::_Vector_impl" = type { %"struct.std::_Vector_base<cmStateDetail::SnapshotDataType, std::allocator<cmStateDetail::SnapshotDataType>>::_Vector_impl_data" }
%"struct.std::_Vector_base<cmStateDetail::SnapshotDataType, std::allocator<cmStateDetail::SnapshotDataType>>::_Vector_impl_data" = type { ptr, ptr, ptr }
%class.cmLinkedTree.82 = type { %"class.std::vector.83", %"class.std::vector.64" }
%"class.std::vector.83" = type { %"struct.std::_Vector_base.84" }
%"struct.std::_Vector_base.84" = type { %"struct.std::_Vector_base<cmDefinitions, std::allocator<cmDefinitions>>::_Vector_impl" }
%"struct.std::_Vector_base<cmDefinitions, std::allocator<cmDefinitions>>::_Vector_impl" = type { %"struct.std::_Vector_base<cmDefinitions, std::allocator<cmDefinitions>>::_Vector_impl_data" }
%"struct.std::_Vector_base<cmDefinitions, std::allocator<cmDefinitions>>::_Vector_impl_data" = type { ptr, ptr, ptr }
%"class.std::optional" = type { %"struct.std::_Optional_base" }
%"struct.std::_Optional_base" = type { %"struct.std::_Optional_payload" }
%"struct.std::_Optional_payload" = type { %"struct.std::_Optional_payload.base", [7 x i8] }
%"struct.std::_Optional_payload.base" = type { %"struct.std::_Optional_payload_base.base" }
%"struct.std::_Optional_payload_base.base" = type <{ %"union.std::_Optional_payload_base<cmDependencyProvider>::_Storage", i8 }>
%"union.std::_Optional_payload_base<cmDependencyProvider>::_Storage" = type { %class.cmDependencyProvider }
%class.cmDependencyProvider = type { %"class.std::__cxx11::basic_string", %"class.std::vector.89" }
%"class.std::vector.89" = type { %"struct.std::_Vector_base.90" }
%"struct.std::_Vector_base.90" = type { %"struct.std::_Vector_base<cmDependencyProvider::Method, std::allocator<cmDependencyProvider::Method>>::_Vector_impl" }
%"struct.std::_Vector_base<cmDependencyProvider::Method, std::allocator<cmDependencyProvider::Method>>::_Vector_impl" = type { %"struct.std::_Vector_base<cmDependencyProvider::Method, std::allocator<cmDependencyProvider::Method>>::_Vector_impl_data" }
%"struct.std::_Vector_base<cmDependencyProvider::Method, std::allocator<cmDependencyProvider::Method>>::_Vector_impl_data" = type { ptr, ptr, ptr }
%"struct.cmStateDetail::PolicyStackEntry" = type <{ %"struct.cmPolicies::PolicyMap", i8, [7 x i8] }>
%"struct.cmPolicies::PolicyMap" = type { %"class.std::bitset" }
%"class.std::bitset" = type { %"struct.std::_Base_bitset" }
%"struct.std::_Base_bitset" = type { [8 x i64] }

; Function Attrs: mustprogress nounwind uwtable
define linkonce_odr dso_local noundef nonnull align 8 dereferenceable(208) ptr @_ZNSt6vectorIN13cmStateDetail16SnapshotDataTypeESaIS1_EEixEm(ptr noundef nonnull align 8 dereferenceable(24) %0, i64 noundef %1) #5 comdat align 2 {
  %3 = alloca ptr, align 8
  %4 = alloca i64, align 8
  store ptr %0, ptr %3, align 8
  store i64 %1, ptr %4, align 8
  %5 = load ptr, ptr %3, align 8
  %6 = getelementptr inbounds %"struct.std::_Vector_base.78", ptr %5, i32 0, i32 0
  %7 = getelementptr inbounds %"struct.std::_Vector_base<cmStateDetail::SnapshotDataType, std::allocator<cmStateDetail::SnapshotDataType>>::_Vector_impl_data", ptr %6, i32 0, i32 0
  %8 = load ptr, ptr %7, align 8
  %9 = load i64, ptr %4, align 8
  %10 = getelementptr inbounds %"struct.cmStateDetail::SnapshotDataType", ptr %8, i64 %9
  ret ptr %10
}

; Function Attrs: mustprogress nounwind uwtable
define linkonce_odr dso_local noundef ptr @_ZN12cmLinkedTreeIN13cmStateDetail16SnapshotDataTypeEE10GetPointerEm(ptr noundef nonnull align 8 dereferenceable(48) %0, i64 noundef %1) #5 comdat align 2 {
  %3 = alloca ptr, align 8
  %4 = alloca i64, align 8
  store ptr %0, ptr %3, align 8
  store i64 %1, ptr %4, align 8
  %5 = load ptr, ptr %3, align 8
  %6 = getelementptr inbounds %class.cmLinkedTree.76, ptr %5, i32 0, i32 0
  %7 = load i64, ptr %4, align 8
  %8 = call noundef nonnull align 8 dereferenceable(208) ptr @_ZNSt6vectorIN13cmStateDetail16SnapshotDataTypeESaIS1_EEixEm(ptr noundef nonnull align 8 dereferenceable(24) %6, i64 noundef %7) #3
  ret ptr %8
}

; Function Attrs: mustprogress uwtable
define linkonce_odr dso_local { ptr, i64 } @_ZN12cmLinkedTreeIN13cmStateDetail16PolicyStackEntryEE4PushENS2_8iteratorES1_(ptr noundef nonnull align 8 dereferenceable(48) %0, ptr %1, i64 %2, ptr noundef byval(%"struct.cmStateDetail::PolicyStackEntry") align 8 %3) #4 comdat align 2 {
  %5 = alloca %"class.cmLinkedTree<cmStateDetail::PolicyStackEntry>::iterator", align 8
  %6 = alloca %"class.cmLinkedTree<cmStateDetail::PolicyStackEntry>::iterator", align 8
  %7 = alloca ptr, align 8
  %8 = alloca %"class.cmLinkedTree<cmStateDetail::PolicyStackEntry>::iterator", align 8
  %9 = getelementptr inbounds { ptr, i64 }, ptr %6, i32 0, i32 0
  store ptr %1, ptr %9, align 8
  %10 = getelementptr inbounds { ptr, i64 }, ptr %6, i32 0, i32 1
  store i64 %2, ptr %10, align 8
  store ptr %0, ptr %7, align 8
  %11 = load ptr, ptr %7, align 8
  call void @llvm.memcpy.p0.p0.i64(ptr align 8 %8, ptr align 8 %6, i64 16, i1 false)
  %12 = getelementptr inbounds { ptr, i64 }, ptr %8, i32 0, i32 0
  %13 = load ptr, ptr %12, align 8
  %14 = getelementptr inbounds { ptr, i64 }, ptr %8, i32 0, i32 1
  %15 = load i64, ptr %14, align 8
  %16 = call { ptr, i64 } @_ZN12cmLinkedTreeIN13cmStateDetail16PolicyStackEntryEE9Push_implENS2_8iteratorEOS1_(ptr noundef nonnull align 8 dereferenceable(48) %11, ptr %13, i64 %15, ptr noundef nonnull align 8 dereferenceable(65) %3)
  %17 = getelementptr inbounds { ptr, i64 }, ptr %5, i32 0, i32 0
  %18 = extractvalue { ptr, i64 } %16, 0
  store ptr %18, ptr %17, align 8
  %19 = getelementptr inbounds { ptr, i64 }, ptr %5, i32 0, i32 1
  %20 = extractvalue { ptr, i64 } %16, 1
  store i64 %20, ptr %19, align 8
  %21 = load { ptr, i64 }, ptr %5, align 8
  ret { ptr, i64 } %21
}

; Function Attrs: mustprogress nounwind uwtable
define linkonce_odr dso_local void @_ZN13cmStateDetail16PolicyStackEntryC2ERKN10cmPolicies9PolicyMapEb(ptr noundef nonnull align 8 dereferenceable(65) %0, ptr noundef nonnull align 8 dereferenceable(64) %1, i1 noundef zeroext %2) unnamed_addr #5 comdat align 2 {
  %4 = alloca ptr, align 8
  %5 = alloca ptr, align 8
  %6 = alloca i8, align 1
  store ptr %0, ptr %4, align 8
  store ptr %1, ptr %5, align 8
  %7 = zext i1 %2 to i8
  store i8 %7, ptr %6, align 1
  %8 = load ptr, ptr %4, align 8
  %9 = load ptr, ptr %5, align 8
  call void @llvm.memcpy.p0.p0.i64(ptr align 8 %8, ptr align 8 %9, i64 64, i1 false)
  %10 = getelementptr inbounds %"struct.cmStateDetail::PolicyStackEntry", ptr %8, i32 0, i32 1
  %11 = load i8, ptr %6, align 1
  %12 = trunc i8 %11 to i1
  %13 = zext i1 %12 to i8
  store i8 %13, ptr %10, align 8
  ret void
}

; Function Attrs: mustprogress uwtable
define linkonce_odr dso_local noundef ptr @_ZN12cmLinkedTreeIN13cmStateDetail16SnapshotDataTypeEE8iteratorptEv(ptr noundef nonnull align 8 dereferenceable(16) %0) #4 comdat align 2 {
  %2 = alloca ptr, align 8
  store ptr %0, ptr %2, align 8
  %3 = load ptr, ptr %2, align 8
  %4 = getelementptr inbounds %"class.cmLinkedTree<cmStateDetail::SnapshotDataType>::iterator", ptr %3, i32 0, i32 0
  %5 = load ptr, ptr %4, align 8
  %6 = getelementptr inbounds %"class.cmLinkedTree<cmStateDetail::SnapshotDataType>::iterator", ptr %3, i32 0, i32 1
  %7 = load i64, ptr %6, align 8
  %8 = sub i64 %7, 1
  %9 = call noundef ptr @_ZN12cmLinkedTreeIN13cmStateDetail16SnapshotDataTypeEE10GetPointerEm(ptr noundef nonnull align 8 dereferenceable(48) %5, i64 noundef %8)
  ret ptr %9
}

; Function Attrs: mustprogress uwtable
define dso_local void @_ZN15cmStateSnapshot10PushPolicyERKN10cmPolicies9PolicyMapEb(ptr noundef nonnull align 8 dereferenceable(24) %0, ptr noundef nonnull align 8 dereferenceable(64) %1, i1 noundef zeroext %2) #4 align 2 {
  %4 = alloca ptr, align 8
  %5 = alloca ptr, align 8
  %6 = alloca i8, align 1
  %7 = alloca %"class.cmLinkedTree<cmStateDetail::SnapshotDataType>::iterator", align 8
  %8 = alloca %"class.cmLinkedTree<cmStateDetail::PolicyStackEntry>::iterator", align 8
  %9 = alloca %"class.cmLinkedTree<cmStateDetail::PolicyStackEntry>::iterator", align 8
  %10 = alloca %"struct.cmStateDetail::PolicyStackEntry", align 8
  store ptr %0, ptr %4, align 8
  store ptr %1, ptr %5, align 8
  %11 = zext i1 %2 to i8
  store i8 %11, ptr %6, align 1
  %12 = load ptr, ptr %4, align 8
  %13 = getelementptr inbounds %class.cmStateSnapshot, ptr %12, i32 0, i32 1
  call void @llvm.memcpy.p0.p0.i64(ptr align 8 %7, ptr align 8 %13, i64 16, i1 false)
  %14 = getelementptr inbounds %class.cmStateSnapshot, ptr %12, i32 0, i32 0
  %15 = load ptr, ptr %14, align 8
  %16 = getelementptr inbounds %class.cmState, ptr %15, i32 0, i32 10
  %17 = call noundef ptr @_ZN12cmLinkedTreeIN13cmStateDetail16SnapshotDataTypeEE8iteratorptEv(ptr noundef nonnull align 8 dereferenceable(16) %7)
  %18 = getelementptr inbounds %"struct.cmStateDetail::SnapshotDataType", ptr %17, i32 0, i32 2
  call void @llvm.memcpy.p0.p0.i64(ptr align 8 %9, ptr align 8 %18, i64 16, i1 false)
  %19 = load ptr, ptr %5, align 8
  %20 = load i8, ptr %6, align 1
  %21 = trunc i8 %20 to i1
  call void @_ZN13cmStateDetail16PolicyStackEntryC2ERKN10cmPolicies9PolicyMapEb(ptr noundef nonnull align 8 dereferenceable(65) %10, ptr noundef nonnull align 8 dereferenceable(64) %19, i1 noundef zeroext %21)
  %22 = getelementptr inbounds { ptr, i64 }, ptr %9, i32 0, i32 0
  %23 = load ptr, ptr %22, align 8
  %24 = getelementptr inbounds { ptr, i64 }, ptr %9, i32 0, i32 1
  %25 = load i64, ptr %24, align 8
  %26 = call { ptr, i64 } @_ZN12cmLinkedTreeIN13cmStateDetail16PolicyStackEntryEE4PushENS2_8iteratorES1_(ptr noundef nonnull align 8 dereferenceable(48) %16, ptr %23, i64 %25, ptr noundef byval(%"struct.cmStateDetail::PolicyStackEntry") align 8 %10)
  %27 = getelementptr inbounds { ptr, i64 }, ptr %8, i32 0, i32 0
  %28 = extractvalue { ptr, i64 } %26, 0
  store ptr %28, ptr %27, align 8
  %29 = getelementptr inbounds { ptr, i64 }, ptr %8, i32 0, i32 1
  %30 = extractvalue { ptr, i64 } %26, 1
  store i64 %30, ptr %29, align 8
  %31 = call noundef ptr @_ZN12cmLinkedTreeIN13cmStateDetail16SnapshotDataTypeEE8iteratorptEv(ptr noundef nonnull align 8 dereferenceable(16) %7)
  %32 = getelementptr inbounds %"struct.cmStateDetail::SnapshotDataType", ptr %31, i32 0, i32 2
  call void @llvm.memcpy.p0.p0.i64(ptr align 8 %32, ptr align 8 %8, i64 16, i1 false)
  ret void
}