; Function Attrs: mustprogress uwtable
define dso_local void @_ZN15cmStateSnapshot10PushPolicyERKN10cmPolicies9PolicyMapEb(ptr noundef nonnull readonly align 8 captures(none) dereferenceable(24) %0, ptr noundef nonnull readonly align 8 captures(none) dereferenceable(64) %1, i1 noundef zeroext %2) local_unnamed_addr #4 align 2 {
  %4 = alloca %"struct.cmStateDetail::PolicyStackEntry", align 8
  %5 = getelementptr inbounds nuw i8, ptr %0, i64 8
  %.sroa.06.0.copyload = load ptr, ptr %5, align 8
  %.sroa.38.0..sroa_idx = getelementptr inbounds nuw i8, ptr %0, i64 16
  %.sroa.38.0.copyload = load i64, ptr %.sroa.38.0..sroa_idx, align 8
  %6 = load ptr, ptr %0, align 8
  %7 = getelementptr inbounds nuw i8, ptr %6, i64 408
  %8 = load ptr, ptr %.sroa.06.0.copyload, align 8
  %9 = getelementptr %"struct.cmStateDetail::SnapshotDataType", ptr %8, i64 %.sroa.38.0.copyload
  %10 = getelementptr i8, ptr %9, i64 -176
  %.sroa.0.0.copyload = load ptr, ptr %10, align 8
  %.sroa.2.0..sroa_idx = getelementptr i8, ptr %9, i64 -168
  %.sroa.2.0.copyload = load i64, ptr %.sroa.2.0..sroa_idx, align 8
  %11 = zext i1 %2 to i8
  call void @llvm.lifetime.start.p0(i64 72, ptr nonnull %4)
  call void @llvm.memcpy.p0.p0.i64(ptr noundef nonnull align 8 dereferenceable(64) %4, ptr noundef nonnull align 8 dereferenceable(64) %1, i64 64, i1 false)
  %.sroa.2.0..sroa_idx4 = getelementptr inbounds nuw i8, ptr %4, i64 64
  store i8 %11, ptr %.sroa.2.0..sroa_idx4, align 8
  %12 = call { ptr, i64 } @_ZN12cmLinkedTreeIN13cmStateDetail16PolicyStackEntryEE9Push_implENS2_8iteratorEOS1_(ptr noundef nonnull align 8 dereferenceable(48) %7, ptr %.sroa.0.0.copyload, i64 %.sroa.2.0.copyload, ptr noundef nonnull align 8 dereferenceable(65) %4)
  call void @llvm.lifetime.end.p0(i64 72, ptr nonnull %4)
  %13 = extractvalue { ptr, i64 } %12, 0
  %14 = extractvalue { ptr, i64 } %12, 1
  %15 = load ptr, ptr %.sroa.06.0.copyload, align 8
  %16 = getelementptr %"struct.cmStateDetail::SnapshotDataType", ptr %15, i64 %.sroa.38.0.copyload
  %17 = getelementptr i8, ptr %16, i64 -176
  store ptr %13, ptr %17, align 8
  %.sroa.22.0..sroa_idx = getelementptr i8, ptr %16, i64 -168
  store i64 %14, ptr %.sroa.22.0..sroa_idx, align 8
  ret void
}